target datalayout = "e-m:e-p270:32:32-p271:32:32-p272:64:64-i64:64-i128:128-f80:128-n8:16:32:64-S128"
target triple = "x86_64-pc-linux-gnu"

%struct.gmx_stats = type { double, double, double, double, double, double, double, double, double, double, double, ptr, ptr, ptr, ptr, i32, i32, i32 }

@.str = private unnamed_addr constant [6 x i8] c"stats\00", align 1
@.str.1 = private unnamed_addr constant [131 x i8] c"generated/home/dtcxzyw/WorkSpace/Projects/compilers/llvm-opt-benchmark/bench/gromacs/gromacs/src/gromacs/statistics/statistics.cpp\00", align 1
@.str.2 = private unnamed_addr constant [9 x i8] c"stats->x\00", align 1
@.str.3 = private unnamed_addr constant [9 x i8] c"stats->y\00", align 1
@.str.4 = private unnamed_addr constant [10 x i8] c"stats->dx\00", align 1
@.str.5 = private unnamed_addr constant [10 x i8] c"stats->dy\00", align 1

; Function Attrs: mustprogress uwtable
define internal void @_ZL14gmx_sfree_implI9gmx_statsEvPKcS2_iPT_(ptr noundef %0, ptr noundef %1, i32 noundef %2, ptr noundef %3) #0 {
  %5 = alloca ptr, align 8
  %6 = alloca ptr, align 8
  %7 = alloca i32, align 4
  %8 = alloca ptr, align 8
  store ptr %0, ptr %5, align 8
  store ptr %1, ptr %6, align 8
  store i32 %2, ptr %7, align 4
  store ptr %3, ptr %8, align 8
  %9 = load ptr, ptr %5, align 8
  %10 = load ptr, ptr %6, align 8
  %11 = load i32, ptr %7, align 4
  %12 = load ptr, ptr %8, align 8
  call void @_Z9save_freePKcS0_iPv(ptr noundef %9, ptr noundef %10, i32 noundef %11, ptr noundef %12)
  ret void
}

; Function Attrs: mustprogress uwtable
define internal void @_ZL14gmx_sfree_implIdEvPKcS1_iPT_(ptr noundef %0, ptr noundef %1, i32 noundef %2, ptr noundef %3) #0 {
  %5 = alloca ptr, align 8
  %6 = alloca ptr, align 8
  %7 = alloca i32, align 4
  %8 = alloca ptr, align 8
  store ptr %0, ptr %5, align 8
  store ptr %1, ptr %6, align 8
  store i32 %2, ptr %7, align 4
  store ptr %3, ptr %8, align 8
  %9 = load ptr, ptr %5, align 8
  %10 = load ptr, ptr %6, align 8
  %11 = load i32, ptr %7, align 4
  %12 = load ptr, ptr %8, align 8
  call void @_Z9save_freePKcS0_iPv(ptr noundef %9, ptr noundef %10, i32 noundef %11, ptr noundef %12)
  ret void
}

; Function Attrs: mustprogress uwtable
define void @_Z14gmx_stats_freeP9gmx_stats(ptr noundef %0) #0 {
  %2 = alloca ptr, align 8
  %3 = alloca ptr, align 8
  store ptr %0, ptr %2, align 8
  %4 = load ptr, ptr %2, align 8
  store ptr %4, ptr %3, align 8
  %5 = load ptr, ptr %3, align 8
  %6 = getelementptr inbounds %struct.gmx_stats, ptr %5, i32 0, i32 11
  %7 = load ptr, ptr %6, align 8
  call void @_ZL14gmx_sfree_implIdEvPKcS1_iPT_(ptr noundef @.str.2, ptr noundef @.str.1, i32 noundef 70, ptr noundef %7)
  %8 = load ptr, ptr %3, align 8
  %9 = getelementptr inbounds %struct.gmx_stats, ptr %8, i32 0, i32 12
  %10 = load ptr, ptr %9, align 8
  call void @_ZL14gmx_sfree_implIdEvPKcS1_iPT_(ptr noundef @.str.3, ptr noundef @.str.1, i32 noundef 71, ptr noundef %10)
  %11 = load ptr, ptr %3, align 8
  %12 = getelementptr inbounds %struct.gmx_stats, ptr %11, i32 0, i32 13
  %13 = load ptr, ptr %12, align 8
  call void @_ZL14gmx_sfree_implIdEvPKcS1_iPT_(ptr noundef @.str.4, ptr noundef @.str.1, i32 noundef 72, ptr noundef %13)
  %14 = load ptr, ptr %3, align 8
  %15 = getelementptr inbounds %struct.gmx_stats, ptr %14, i32 0, i32 14
  %16 = load ptr, ptr %15, align 8
  call void @_ZL14gmx_sfree_implIdEvPKcS1_iPT_(ptr noundef @.str.5, ptr noundef @.str.1, i32 noundef 73, ptr noundef %16)
  %17 = load ptr, ptr %3, align 8
  call void @_ZL14gmx_sfree_implI9gmx_statsEvPKcS2_iPT_(ptr noundef @.str, ptr noundef @.str.1, i32 noundef 74, ptr noundef %17)
  ret void
}